target datalayout = "e-m:e-p270:32:32-p271:32:32-p272:64:64-i64:64-i128:128-f80:128-n8:16:32:64-S128"
target triple = "x86_64-pc-linux-gnu"

%"struct.std::pair" = type { ptr, ptr }
%class.anon.4 = type { i64, ptr, ptr }

; Function Attrs: noinline noreturn nounwind uwtable
define linkonce_odr hidden void @__clang_call_terminate(ptr noundef %0) #15 comdat {
  %2 = call ptr @__cxa_begin_catch(ptr %0) #24
  call void @_ZSt9terminatev() #26
  unreachable
}

; Function Attrs: mustprogress nounwind uwtable
define linkonce_odr void @_ZNSt4pairIPK10Elf64_ShdrPK9Elf64_SymEC2IDnDnTnNSt9enable_ifIXaaclsr5_PCCPE22_MoveConstructiblePairIT_T0_EEclsr5_PCCPE30_ImplicitlyMoveConvertiblePairIS9_SA_EEEbE4typeELb1EEEOS9_OSA_(ptr noundef nonnull align 8 dereferenceable(16) %0, ptr noundef nonnull align 8 dereferenceable(8) %1, ptr noundef nonnull align 8 dereferenceable(8) %2) unnamed_addr #0 comdat align 2 {
  %4 = alloca ptr, align 8
  %5 = alloca ptr, align 8
  %6 = alloca ptr, align 8
  store ptr %0, ptr %4, align 8, !tbaa !158
  store ptr %1, ptr %5, align 8, !tbaa !161
  store ptr %2, ptr %6, align 8, !tbaa !161
  %7 = load ptr, ptr %4, align 8
  %8 = getelementptr inbounds nuw %"struct.std::pair", ptr %7, i32 0, i32 0
  store ptr null, ptr %8, align 8, !tbaa !163
  %9 = getelementptr inbounds nuw %"struct.std::pair", ptr %7, i32 0, i32 1
  store ptr null, ptr %9, align 8, !tbaa !165
  ret void
}

; Function Attrs: mustprogress nounwind uwtable
define { ptr, ptr } @_ZNK5folly10symbolizer7ElfFile22getDefinitionByAddressEm(ptr noundef nonnull align 8 dereferenceable(576) %0, i64 noundef %1) #0 align 2 personality ptr @__gxx_personality_v0 {
  %3 = alloca %"struct.std::pair", align 8
  %4 = alloca ptr, align 8
  %5 = alloca i64, align 8
  %6 = alloca ptr, align 8
  %7 = alloca ptr, align 8
  %8 = alloca %class.anon.4, align 8
  %9 = alloca %class.anon.4, align 8
  %10 = alloca %class.anon.4, align 8
  store ptr %0, ptr %4, align 8, !tbaa !7
  store i64 %1, ptr %5, align 8, !tbaa !37
  %11 = load ptr, ptr %4, align 8
  call void @llvm.lifetime.start.p0(i64 8, ptr %6) #24
  store ptr null, ptr %6, align 8, !tbaa !153
  call void @llvm.lifetime.start.p0(i64 8, ptr %7) #24
  store ptr null, ptr %7, align 8, !tbaa !153
  invoke void @_ZNSt4pairIPK10Elf64_ShdrPK9Elf64_SymEC2IDnDnTnNSt9enable_ifIXaaclsr5_PCCPE22_MoveConstructiblePairIT_T0_EEclsr5_PCCPE30_ImplicitlyMoveConvertiblePairIS9_SA_EEEbE4typeELb1EEEOS9_OSA_(ptr noundef nonnull align 8 dereferenceable(16) %3, ptr noundef nonnull align 8 dereferenceable(8) %6, ptr noundef nonnull align 8 dereferenceable(8) %7)
          to label %12 unwind label %25

12:                                               ; preds = %2
  call void @llvm.lifetime.end.p0(i64 8, ptr %7) #24
  call void @llvm.lifetime.end.p0(i64 8, ptr %6) #24
  call void @llvm.lifetime.start.p0(i64 24, ptr %8) #24
  %13 = getelementptr inbounds nuw %class.anon.4, ptr %8, i32 0, i32 0
  %14 = load i64, ptr %5, align 8, !tbaa !37
  store i64 %14, ptr %13, align 8, !tbaa !155
  %15 = getelementptr inbounds nuw %class.anon.4, ptr %8, i32 0, i32 1
  store ptr %3, ptr %15, align 8, !tbaa !158
  %16 = getelementptr inbounds nuw %class.anon.4, ptr %8, i32 0, i32 2
  store ptr %11, ptr %16, align 8, !tbaa !159
  call void @llvm.memcpy.p0.p0.i64(ptr align 8 %9, ptr align 8 %8, i64 24, i1 false), !tbaa.struct !160
  %17 = invoke noundef ptr @"_ZNK5folly10symbolizer7ElfFile23iterateSectionsWithTypeIZNKS1_22getDefinitionByAddressEmE3$_0EEPK10Elf64_ShdrjT_"(ptr noundef nonnull align 8 dereferenceable(576) %11, i32 noundef 11, ptr noundef byval(%class.anon.4) align 8 %9)
          to label %18 unwind label %25

18:                                               ; preds = %12
  %19 = icmp ne ptr %17, null
  br i1 %19, label %23, label %20

20:                                               ; preds = %18
  call void @llvm.memcpy.p0.p0.i64(ptr align 8 %10, ptr align 8 %8, i64 24, i1 false), !tbaa.struct !160
  %21 = invoke noundef ptr @"_ZNK5folly10symbolizer7ElfFile23iterateSectionsWithTypeIZNKS1_22getDefinitionByAddressEmE3$_0EEPK10Elf64_ShdrjT_"(ptr noundef nonnull align 8 dereferenceable(576) %11, i32 noundef 2, ptr noundef byval(%class.anon.4) align 8 %10)
          to label %22 unwind label %25

22:                                               ; preds = %20
  br label %23

23:                                               ; preds = %22, %18
  call void @llvm.lifetime.end.p0(i64 24, ptr %8) #24
  %24 = load { ptr, ptr }, ptr %3, align 8
  ret { ptr, ptr } %24

25:                                               ; preds = %20, %12, %2
  %26 = landingpad { ptr, i32 }
          catch ptr null
  %27 = extractvalue { ptr, i32 } %26, 0
  call void @__clang_call_terminate(ptr %27) #26
  unreachable
}