; Function Attrs: mustprogress nounwind uwtable
define { ptr, ptr } @_ZNK5folly10symbolizer7ElfFile22getDefinitionByAddressEm(ptr noundef nonnull align 8 dereferenceable(576) %0, i64 noundef %1) local_unnamed_addr #4 align 2 personality ptr @__gxx_personality_v0 {
  %3 = alloca %"struct.std::pair", align 8
  %4 = alloca %class.anon.4, align 8
  %5 = alloca %class.anon.4, align 8
  call void @llvm.memset.p0.i64(ptr noundef nonnull align 8 dereferenceable(16) %3, i8 0, i64 16, i1 false)
  store i64 %1, ptr %4, align 8, !tbaa !38
  %.sroa.5.0..sroa_idx = getelementptr inbounds nuw i8, ptr %4, i64 8
  store ptr %3, ptr %.sroa.5.0..sroa_idx, align 8, !tbaa !89
  %.sroa.6.0..sroa_idx = getelementptr inbounds nuw i8, ptr %4, i64 16
  store ptr %0, ptr %.sroa.6.0..sroa_idx, align 8, !tbaa !91
  %6 = call fastcc noundef ptr @"_ZNK5folly10symbolizer7ElfFile23iterateSectionsWithTypeIZNKS1_22getDefinitionByAddressEmE3$_0EEPK10Elf64_ShdrjT_"(ptr noundef nonnull align 8 dereferenceable(576) %0, i32 noundef 11, ptr noundef nonnull byval(%class.anon.4) align 8 %4)
  %.not = icmp eq ptr %6, null
  br i1 %.not, label %7, label %9

7:                                                ; preds = %2
  store i64 %1, ptr %5, align 8, !tbaa !38
  %.sroa.5.0..sroa_idx2 = getelementptr inbounds nuw i8, ptr %5, i64 8
  store ptr %3, ptr %.sroa.5.0..sroa_idx2, align 8, !tbaa !89
  %.sroa.6.0..sroa_idx4 = getelementptr inbounds nuw i8, ptr %5, i64 16
  store ptr %0, ptr %.sroa.6.0..sroa_idx4, align 8, !tbaa !91
  %8 = call fastcc noundef ptr @"_ZNK5folly10symbolizer7ElfFile23iterateSectionsWithTypeIZNKS1_22getDefinitionByAddressEmE3$_0EEPK10Elf64_ShdrjT_"(ptr noundef nonnull align 8 dereferenceable(576) %0, i32 noundef 2, ptr noundef nonnull byval(%class.anon.4) align 8 %5)
  br label %9

9:                                                ; preds = %7, %2
  %.fca.0.load = load ptr, ptr %3, align 8
  %.fca.0.insert = insertvalue { ptr, ptr } poison, ptr %.fca.0.load, 0
  %.fca.1.gep = getelementptr inbounds nuw i8, ptr %3, i64 8
  %.fca.1.load = load ptr, ptr %.fca.1.gep, align 8
  %.fca.1.insert = insertvalue { ptr, ptr } %.fca.0.insert, ptr %.fca.1.load, 1
  ret { ptr, ptr } %.fca.1.insert
}